; Function Attrs: mustprogress nounwind uwtable
define hidden noundef ptr @_ZN8jniCheck14validate_classEP10JavaThreadP7_jclassb(ptr noundef %0, ptr noundef %1, i1 noundef zeroext %2) local_unnamed_addr #0 align 2 {
  %.not.i = icmp eq ptr %1, null
  br i1 %.not.i, label %6, label %4

4:                                                ; preds = %3
  %5 = tail call noundef i32 @_ZN10JNIHandles11handle_typeEP10JavaThreadP8_jobject(ptr noundef %0, ptr noundef nonnull %1) #11
  %.not7.i = icmp eq i32 %5, 0
  br i1 %.not7.i, label %6, label %_ZN8jniCheck15validate_handleEP10JavaThreadP8_jobject.exit

6:                                                ; preds = %4, %3
  %7 = load ptr, ptr @tty, align 8
  tail call void (ptr, ptr, ...) @_ZN12outputStream8print_crEPKcz(ptr noundef nonnull align 8 dereferenceable(56) %7, ptr noundef nonnull @.str.126, ptr noundef nonnull @.str.127) #11
  tail call void @_ZN10JavaThread15print_jni_stackEv(ptr noundef nonnull align 8 dereferenceable(1800) %0) #11
  tail call void @_ZN2os5abortEb(i1 noundef zeroext true) #12
  unreachable

_ZN8jniCheck15validate_handleEP10JavaThreadP8_jobject.exit: ; preds = %4
  %8 = tail call noundef ptr @_ZN10JNIHandles22resolve_external_guardEP8_jobject(ptr noundef nonnull %1) #11
  %9 = icmp eq ptr %8, null
  br i1 %9, label %10, label %12

10:                                               ; preds = %_ZN8jniCheck15validate_handleEP10JavaThreadP8_jobject.exit
  %11 = load ptr, ptr @tty, align 8
  tail call void (ptr, ptr, ...) @_ZN12outputStream8print_crEPKcz(ptr noundef nonnull align 8 dereferenceable(56) %11, ptr noundef nonnull @.str.126, ptr noundef nonnull @.str.135) #11
  tail call void @_ZN10JavaThread15print_jni_stackEv(ptr noundef nonnull align 8 dereferenceable(1800) %0) #11
  tail call void @_ZN2os5abortEb(i1 noundef zeroext true) #12
  unreachable

12:                                               ; preds = %_ZN8jniCheck15validate_handleEP10JavaThreadP8_jobject.exit
  %13 = load i8, ptr @UseCompressedClassPointers, align 1
  %14 = trunc i8 %13 to i1
  %15 = getelementptr inbounds i8, ptr %8, i64 8
  br i1 %14, label %16, label %26

16:                                               ; preds = %12
  %17 = load i32, ptr %15, align 8
  %18 = load ptr, ptr @_ZN23CompressedKlassPointers5_baseE, align 8
  %19 = load i32, ptr @_ZN23CompressedKlassPointers6_shiftE, align 4
  %20 = ptrtoint ptr %18 to i64
  %21 = zext i32 %17 to i64
  %22 = zext nneg i32 %19 to i64
  %23 = shl i64 %21, %22
  %24 = add i64 %23, %20
  %25 = inttoptr i64 %24 to ptr
  br label %_ZNK7oopDesc5klassEv.exit

26:                                               ; preds = %12
  %27 = load ptr, ptr %15, align 8
  br label %_ZNK7oopDesc5klassEv.exit

_ZNK7oopDesc5klassEv.exit:                        ; preds = %16, %26
  %.0.i = phi ptr [ %25, %16 ], [ %27, %26 ]
  %28 = load ptr, ptr getelementptr inbounds (i8, ptr @_ZN9vmClasses8_klassesE, i64 16), align 8
  %.not = icmp eq ptr %.0.i, %28
  br i1 %.not, label %31, label %29

29:                                               ; preds = %_ZNK7oopDesc5klassEv.exit
  %30 = load ptr, ptr @tty, align 8
  tail call void (ptr, ptr, ...) @_ZN12outputStream8print_crEPKcz(ptr noundef nonnull align 8 dereferenceable(56) %30, ptr noundef nonnull @.str.126, ptr noundef nonnull @.str.136) #11
  tail call void @_ZN10JavaThread15print_jni_stackEv(ptr noundef nonnull align 8 dereferenceable(1800) %0) #11
  tail call void @_ZN2os5abortEb(i1 noundef zeroext true) #12
  unreachable

31:                                               ; preds = %_ZNK7oopDesc5klassEv.exit
  %32 = load i32, ptr @_ZN15java_lang_Class13_klass_offsetE, align 4
  %33 = tail call noundef ptr @_ZNK7oopDesc14metadata_fieldEi(ptr noundef nonnull align 8 dereferenceable(16) %8, i32 noundef %32) #11
  %.not11 = icmp eq ptr %33, null
  br i1 %.not11, label %34, label %41

34:                                               ; preds = %31
  br i1 %2, label %35, label %39

35:                                               ; preds = %34
  %36 = load i32, ptr @_ZN15java_lang_Class13_klass_offsetE, align 4
  %37 = tail call noundef ptr @_ZNK7oopDesc14metadata_fieldEi(ptr noundef nonnull align 8 dereferenceable(16) %8, i32 noundef %36) #11
  %38 = icmp eq ptr %37, null
  br i1 %38, label %41, label %39

39:                                               ; preds = %35, %34
  %40 = load ptr, ptr @tty, align 8
  tail call void (ptr, ptr, ...) @_ZN12outputStream8print_crEPKcz(ptr noundef nonnull align 8 dereferenceable(56) %40, ptr noundef nonnull @.str.126, ptr noundef nonnull @.str.136) #11
  tail call void @_ZN10JavaThread15print_jni_stackEv(ptr noundef nonnull align 8 dereferenceable(1800) %0) #11
  tail call void @_ZN2os5abortEb(i1 noundef zeroext true) #12
  unreachable

41:                                               ; preds = %35, %31
  ret ptr %33
}